target datalayout = "e-m:e-p270:32:32-p271:32:32-p272:64:64-i64:64-i128:128-f80:128-n8:16:32:64-S128"
target triple = "x86_64-pc-linux-gnu"

%struct._archiveHandle = type { %struct.Archive, i32, ptr, ptr, i64, i64, i32, %struct.sqlparseInfo, i64, i32, ptr, i64, i64, i64, ptr, ptr, ptr, ptr, ptr, ptr, ptr, ptr, ptr, ptr, ptr, ptr, ptr, ptr, ptr, ptr, ptr, ptr, ptr, ptr, ptr, ptr, ptr, ptr, ptr, ptr, ptr, ptr, ptr, ptr, i32, i32, i8, i32, i8, i32, ptr, ptr, ptr, ptr, i32, i32, ptr, ptr, ptr, %struct.pg_compress_specification, i8, i32, i32, ptr, ptr, ptr, ptr, ptr, i32, ptr, i64, i64, i32, i32, i32, i32, ptr, ptr }
%struct.Archive = type { ptr, ptr, i32, ptr, i32, i8, i32, i32, i32, ptr, i32, i8, ptr, ptr, i8, i32, ptr }
%struct.sqlparseInfo = type { i32, i8, ptr }
%struct.pg_compress_specification = type { i32, i32, i32, i32, i8, ptr }
%struct.lclContext = type { ptr, i32, i64 }

@.str = private unnamed_addr constant [1 x i8] zeroinitializer, align 1
@.str.4 = private unnamed_addr constant [2 x i8] c"r\00", align 1
@.str.5 = private unnamed_addr constant [35 x i8] c"could not open input file \22%s\22: %m\00", align 1
@.str.19 = private unnamed_addr constant [54 x i8] c"could not determine seek position in archive file: %m\00", align 1
@.str.20 = private unnamed_addr constant [33 x i8] c"could not close archive file: %m\00", align 1
@.str.21 = private unnamed_addr constant [31 x i8] c"can only reopen input archives\00", align 1
@.str.22 = private unnamed_addr constant [54 x i8] c"parallel restore from standard input is not supported\00", align 1
@.str.23 = private unnamed_addr constant [57 x i8] c"parallel restore from non-seekable file is not supported\00", align 1
@.str.24 = private unnamed_addr constant [48 x i8] c"could not set seek position in archive file: %m\00", align 1

; Function Attrs: nounwind uwtable
define internal void @_ReopenArchive(ptr noundef %0) #0 {
  %2 = alloca ptr, align 8
  %3 = alloca ptr, align 8
  %4 = alloca i64, align 8
  store ptr %0, ptr %2, align 8
  call void @llvm.lifetime.start.p0(i64 8, ptr %3) #7
  %5 = load ptr, ptr %2, align 8
  %6 = getelementptr inbounds nuw %struct._archiveHandle, ptr %5, i32 0, i32 63
  %7 = load ptr, ptr %6, align 8
  store ptr %7, ptr %3, align 8
  call void @llvm.lifetime.start.p0(i64 8, ptr %4) #7
  %8 = load ptr, ptr %2, align 8
  %9 = getelementptr inbounds nuw %struct._archiveHandle, ptr %8, i32 0, i32 62
  %10 = load i32, ptr %9, align 8
  %11 = icmp eq i32 %10, 1
  br i1 %11, label %12, label %16

12:                                               ; preds = %1
  br label %13

13:                                               ; preds = %12
  call void (i32, i32, ptr, ...) @pg_log_generic(i32 noundef 4, i32 noundef 0, ptr noundef @.str.21)
  call void @exit_nicely(i32 noundef 1) #9
  unreachable

14:                                               ; No predecessors!
  br label %15

15:                                               ; preds = %14
  br label %16

16:                                               ; preds = %15, %1
  %17 = load ptr, ptr %2, align 8
  %18 = getelementptr inbounds nuw %struct._archiveHandle, ptr %17, i32 0, i32 50
  %19 = load ptr, ptr %18, align 8
  %20 = icmp eq ptr %19, null
  br i1 %20, label %27, label %21

21:                                               ; preds = %16
  %22 = load ptr, ptr %2, align 8
  %23 = getelementptr inbounds nuw %struct._archiveHandle, ptr %22, i32 0, i32 50
  %24 = load ptr, ptr %23, align 8
  %25 = call i32 @strcmp(ptr noundef %24, ptr noundef @.str) #8
  %26 = icmp eq i32 %25, 0
  br i1 %26, label %27, label %31

27:                                               ; preds = %21, %16
  br label %28

28:                                               ; preds = %27
  call void (i32, i32, ptr, ...) @pg_log_generic(i32 noundef 4, i32 noundef 0, ptr noundef @.str.22)
  call void @exit_nicely(i32 noundef 1) #9
  unreachable

29:                                               ; No predecessors!
  br label %30

30:                                               ; preds = %29
  br label %31

31:                                               ; preds = %30, %21
  %32 = load ptr, ptr %3, align 8
  %33 = getelementptr inbounds nuw %struct.lclContext, ptr %32, i32 0, i32 1
  %34 = load i32, ptr %33, align 8
  %35 = icmp ne i32 %34, 0
  br i1 %35, label %40, label %36

36:                                               ; preds = %31
  br label %37

37:                                               ; preds = %36
  call void (i32, i32, ptr, ...) @pg_log_generic(i32 noundef 4, i32 noundef 0, ptr noundef @.str.23)
  call void @exit_nicely(i32 noundef 1) #9
  unreachable

38:                                               ; No predecessors!
  br label %39

39:                                               ; preds = %38
  br label %40

40:                                               ; preds = %39, %31
  %41 = load ptr, ptr %2, align 8
  %42 = getelementptr inbounds nuw %struct._archiveHandle, ptr %41, i32 0, i32 51
  %43 = load ptr, ptr %42, align 8
  %44 = call i64 @ftello(ptr noundef %43)
  store i64 %44, ptr %4, align 8
  %45 = load i64, ptr %4, align 8
  %46 = icmp slt i64 %45, 0
  br i1 %46, label %47, label %51

47:                                               ; preds = %40
  br label %48

48:                                               ; preds = %47
  call void (i32, i32, ptr, ...) @pg_log_generic(i32 noundef 4, i32 noundef 0, ptr noundef @.str.19)
  call void @exit_nicely(i32 noundef 1) #9
  unreachable

49:                                               ; No predecessors!
  br label %50

50:                                               ; preds = %49
  br label %51

51:                                               ; preds = %50, %40
  %52 = load ptr, ptr %2, align 8
  %53 = getelementptr inbounds nuw %struct._archiveHandle, ptr %52, i32 0, i32 51
  %54 = load ptr, ptr %53, align 8
  %55 = call i32 @fclose(ptr noundef %54)
  %56 = icmp ne i32 %55, 0
  br i1 %56, label %57, label %61

57:                                               ; preds = %51
  br label %58

58:                                               ; preds = %57
  call void (i32, i32, ptr, ...) @pg_log_generic(i32 noundef 4, i32 noundef 0, ptr noundef @.str.20)
  call void @exit_nicely(i32 noundef 1) #9
  unreachable

59:                                               ; No predecessors!
  br label %60

60:                                               ; preds = %59
  br label %61

61:                                               ; preds = %60, %51
  %62 = load ptr, ptr %2, align 8
  %63 = getelementptr inbounds nuw %struct._archiveHandle, ptr %62, i32 0, i32 50
  %64 = load ptr, ptr %63, align 8
  %65 = call noalias ptr @fopen(ptr noundef %64, ptr noundef @.str.4)
  %66 = load ptr, ptr %2, align 8
  %67 = getelementptr inbounds nuw %struct._archiveHandle, ptr %66, i32 0, i32 51
  store ptr %65, ptr %67, align 8
  %68 = load ptr, ptr %2, align 8
  %69 = getelementptr inbounds nuw %struct._archiveHandle, ptr %68, i32 0, i32 51
  %70 = load ptr, ptr %69, align 8
  %71 = icmp ne ptr %70, null
  br i1 %71, label %79, label %72

72:                                               ; preds = %61
  br label %73

73:                                               ; preds = %72
  %74 = load ptr, ptr %2, align 8
  %75 = getelementptr inbounds nuw %struct._archiveHandle, ptr %74, i32 0, i32 50
  %76 = load ptr, ptr %75, align 8
  call void (i32, i32, ptr, ...) @pg_log_generic(i32 noundef 4, i32 noundef 0, ptr noundef @.str.5, ptr noundef %76)
  call void @exit_nicely(i32 noundef 1) #9
  unreachable

77:                                               ; No predecessors!
  br label %78

78:                                               ; preds = %77
  br label %79

79:                                               ; preds = %78, %61
  %80 = load ptr, ptr %2, align 8
  %81 = getelementptr inbounds nuw %struct._archiveHandle, ptr %80, i32 0, i32 51
  %82 = load ptr, ptr %81, align 8
  %83 = load i64, ptr %4, align 8
  %84 = call i32 @fseeko(ptr noundef %82, i64 noundef %83, i32 noundef 0)
  %85 = icmp ne i32 %84, 0
  br i1 %85, label %86, label %90

86:                                               ; preds = %79
  br label %87

87:                                               ; preds = %86
  call void (i32, i32, ptr, ...) @pg_log_generic(i32 noundef 4, i32 noundef 0, ptr noundef @.str.24)
  call void @exit_nicely(i32 noundef 1) #9
  unreachable

88:                                               ; No predecessors!
  br label %89

89:                                               ; preds = %88
  br label %90

90:                                               ; preds = %89, %79
  call void @llvm.lifetime.end.p0(i64 8, ptr %4) #7
  call void @llvm.lifetime.end.p0(i64 8, ptr %3) #7
  ret void
}