; Function Attrs: nounwind uwtable
define internal void @_ReopenArchive(ptr noundef captures(none) %0) #0 {
  %2 = getelementptr inbounds nuw i8, ptr %0, i64 592
  %3 = load ptr, ptr %2, align 8
  %4 = getelementptr inbounds nuw i8, ptr %0, i64 584
  %5 = load i32, ptr %4, align 8
  %6 = icmp eq i32 %5, 1
  br i1 %6, label %7, label %8

7:                                                ; preds = %1
  tail call void (i32, i32, ptr, ...) @pg_log_generic(i32 noundef 4, i32 noundef 0, ptr noundef nonnull @.str.21) #7
  tail call void @exit_nicely(i32 noundef 1) #8
  unreachable

8:                                                ; preds = %1
  %9 = getelementptr inbounds nuw i8, ptr %0, i64 480
  %10 = load ptr, ptr %9, align 8
  %11 = icmp eq ptr %10, null
  br i1 %11, label %14, label %12

12:                                               ; preds = %8
  %strcmpload = load i8, ptr %10, align 1
  %13 = icmp eq i8 %strcmpload, 0
  br i1 %13, label %14, label %15

14:                                               ; preds = %8, %12
  tail call void (i32, i32, ptr, ...) @pg_log_generic(i32 noundef 4, i32 noundef 0, ptr noundef nonnull @.str.22) #7
  tail call void @exit_nicely(i32 noundef 1) #8
  unreachable

15:                                               ; preds = %12
  %16 = getelementptr inbounds nuw i8, ptr %3, i64 8
  %17 = load i32, ptr %16, align 8
  %.not = icmp eq i32 %17, 0
  br i1 %.not, label %18, label %19

18:                                               ; preds = %15
  tail call void (i32, i32, ptr, ...) @pg_log_generic(i32 noundef 4, i32 noundef 0, ptr noundef nonnull @.str.23) #7
  tail call void @exit_nicely(i32 noundef 1) #8
  unreachable

19:                                               ; preds = %15
  %20 = getelementptr inbounds nuw i8, ptr %0, i64 488
  %21 = load ptr, ptr %20, align 8
  %22 = tail call i64 @ftello(ptr noundef %21)
  %23 = icmp slt i64 %22, 0
  br i1 %23, label %24, label %25

24:                                               ; preds = %19
  tail call void (i32, i32, ptr, ...) @pg_log_generic(i32 noundef 4, i32 noundef 0, ptr noundef nonnull @.str.19) #7
  tail call void @exit_nicely(i32 noundef 1) #8
  unreachable

25:                                               ; preds = %19
  %26 = load ptr, ptr %20, align 8
  %27 = tail call i32 @fclose(ptr noundef %26)
  %.not15 = icmp eq i32 %27, 0
  br i1 %.not15, label %29, label %28

28:                                               ; preds = %25
  tail call void (i32, i32, ptr, ...) @pg_log_generic(i32 noundef 4, i32 noundef 0, ptr noundef nonnull @.str.20) #7
  tail call void @exit_nicely(i32 noundef 1) #8
  unreachable

29:                                               ; preds = %25
  %30 = load ptr, ptr %9, align 8
  %31 = tail call noalias ptr @fopen(ptr noundef %30, ptr noundef nonnull @.str.4)
  store ptr %31, ptr %20, align 8
  %.not16 = icmp eq ptr %31, null
  br i1 %.not16, label %32, label %34

32:                                               ; preds = %29
  %33 = load ptr, ptr %9, align 8
  tail call void (i32, i32, ptr, ...) @pg_log_generic(i32 noundef 4, i32 noundef 0, ptr noundef nonnull @.str.5, ptr noundef %33) #7
  tail call void @exit_nicely(i32 noundef 1) #8
  unreachable

34:                                               ; preds = %29
  %35 = tail call i32 @fseeko(ptr noundef nonnull %31, i64 noundef %22, i32 noundef 0)
  %.not17 = icmp eq i32 %35, 0
  br i1 %.not17, label %37, label %36

36:                                               ; preds = %34
  tail call void (i32, i32, ptr, ...) @pg_log_generic(i32 noundef 4, i32 noundef 0, ptr noundef nonnull @.str.24) #7
  tail call void @exit_nicely(i32 noundef 1) #8
  unreachable

37:                                               ; preds = %34
  ret void
}